target datalayout = "e-m:e-p270:32:32-p271:32:32-p272:64:64-i64:64-i128:128-f80:128-n8:16:32:64-S128"
target triple = "x86_64-pc-linux-gnu"

%struct.OpcodeDecision = type { [256 x %struct.ModRMDecision] }
%struct.ModRMDecision = type { i8, i32 }

; Function Attrs: mustprogress nounwind uwtable
define internal noundef zeroext i16 @_ZL6decodeN4llvm15X86Disassembler10OpcodeTypeENS0_18InstructionContextEhh(i32 noundef %0, i32 noundef %1, i8 noundef zeroext %2, i8 noundef zeroext %3) #0 {
  %5 = alloca i16, align 2
  %6 = alloca i32, align 4
  %7 = alloca i32, align 4
  %8 = alloca i8, align 1
  %9 = alloca i8, align 1
  %10 = alloca ptr, align 8
  store i32 %0, ptr %6, align 4
  store i32 %1, ptr %7, align 4
  store i8 %2, ptr %8, align 1
  store i8 %3, ptr %9, align 1
  %11 = load i32, ptr %6, align 4
  switch i32 %11, label %108 [
    i32 0, label %12
    i32 1, label %20
    i32 2, label %28
    i32 3, label %36
    i32 4, label %44
    i32 5, label %52
    i32 6, label %60
    i32 7, label %68
    i32 8, label %76
    i32 9, label %84
    i32 10, label %92
    i32 11, label %100
  ]

12:                                               ; preds = %4
  %13 = load i32, ptr %7, align 4
  %14 = zext i32 %13 to i64
  %15 = getelementptr inbounds [219 x %struct.OpcodeDecision], ptr @_ZL29x86DisassemblerOneByteOpcodes, i64 0, i64 %14
  %16 = getelementptr inbounds nuw %struct.OpcodeDecision, ptr %15, i32 0, i32 0
  %17 = load i8, ptr %8, align 1
  %18 = zext i8 %17 to i64
  %19 = getelementptr inbounds [256 x %struct.ModRMDecision], ptr %16, i64 0, i64 %18
  store ptr %19, ptr %10, align 8
  br label %108

20:                                               ; preds = %4
  %21 = load i32, ptr %7, align 4
  %22 = zext i32 %21 to i64
  %23 = getelementptr inbounds [219 x %struct.OpcodeDecision], ptr @_ZL29x86DisassemblerTwoByteOpcodes, i64 0, i64 %22
  %24 = getelementptr inbounds nuw %struct.OpcodeDecision, ptr %23, i32 0, i32 0
  %25 = load i8, ptr %8, align 1
  %26 = zext i8 %25 to i64
  %27 = getelementptr inbounds [256 x %struct.ModRMDecision], ptr %24, i64 0, i64 %26
  store ptr %27, ptr %10, align 8
  br label %108

28:                                               ; preds = %4
  %29 = load i32, ptr %7, align 4
  %30 = zext i32 %29 to i64
  %31 = getelementptr inbounds [219 x %struct.OpcodeDecision], ptr @_ZL33x86DisassemblerThreeByte38Opcodes, i64 0, i64 %30
  %32 = getelementptr inbounds nuw %struct.OpcodeDecision, ptr %31, i32 0, i32 0
  %33 = load i8, ptr %8, align 1
  %34 = zext i8 %33 to i64
  %35 = getelementptr inbounds [256 x %struct.ModRMDecision], ptr %32, i64 0, i64 %34
  store ptr %35, ptr %10, align 8
  br label %108

36:                                               ; preds = %4
  %37 = load i32, ptr %7, align 4
  %38 = zext i32 %37 to i64
  %39 = getelementptr inbounds [219 x %struct.OpcodeDecision], ptr @_ZL33x86DisassemblerThreeByte3AOpcodes, i64 0, i64 %38
  %40 = getelementptr inbounds nuw %struct.OpcodeDecision, ptr %39, i32 0, i32 0
  %41 = load i8, ptr %8, align 1
  %42 = zext i8 %41 to i64
  %43 = getelementptr inbounds [256 x %struct.ModRMDecision], ptr %40, i64 0, i64 %42
  store ptr %43, ptr %10, align 8
  br label %108

44:                                               ; preds = %4
  %45 = load i32, ptr %7, align 4
  %46 = zext i32 %45 to i64
  %47 = getelementptr inbounds [219 x %struct.OpcodeDecision], ptr @_ZL26x86DisassemblerXOP8Opcodes, i64 0, i64 %46
  %48 = getelementptr inbounds nuw %struct.OpcodeDecision, ptr %47, i32 0, i32 0
  %49 = load i8, ptr %8, align 1
  %50 = zext i8 %49 to i64
  %51 = getelementptr inbounds [256 x %struct.ModRMDecision], ptr %48, i64 0, i64 %50
  store ptr %51, ptr %10, align 8
  br label %108

52:                                               ; preds = %4
  %53 = load i32, ptr %7, align 4
  %54 = zext i32 %53 to i64
  %55 = getelementptr inbounds [219 x %struct.OpcodeDecision], ptr @_ZL26x86DisassemblerXOP9Opcodes, i64 0, i64 %54
  %56 = getelementptr inbounds nuw %struct.OpcodeDecision, ptr %55, i32 0, i32 0
  %57 = load i8, ptr %8, align 1
  %58 = zext i8 %57 to i64
  %59 = getelementptr inbounds [256 x %struct.ModRMDecision], ptr %56, i64 0, i64 %58
  store ptr %59, ptr %10, align 8
  br label %108

60:                                               ; preds = %4
  %61 = load i32, ptr %7, align 4
  %62 = zext i32 %61 to i64
  %63 = getelementptr inbounds [219 x %struct.OpcodeDecision], ptr @_ZL26x86DisassemblerXOPAOpcodes, i64 0, i64 %62
  %64 = getelementptr inbounds nuw %struct.OpcodeDecision, ptr %63, i32 0, i32 0
  %65 = load i8, ptr %8, align 1
  %66 = zext i8 %65 to i64
  %67 = getelementptr inbounds [256 x %struct.ModRMDecision], ptr %64, i64 0, i64 %66
  store ptr %67, ptr %10, align 8
  br label %108

68:                                               ; preds = %4
  %69 = load i32, ptr %7, align 4
  %70 = zext i32 %69 to i64
  %71 = getelementptr inbounds [219 x %struct.OpcodeDecision], ptr @_ZL27x86Disassembler3DNowOpcodes, i64 0, i64 %70
  %72 = getelementptr inbounds nuw %struct.OpcodeDecision, ptr %71, i32 0, i32 0
  %73 = load i8, ptr %8, align 1
  %74 = zext i8 %73 to i64
  %75 = getelementptr inbounds [256 x %struct.ModRMDecision], ptr %72, i64 0, i64 %74
  store ptr %75, ptr %10, align 8
  br label %108

76:                                               ; preds = %4
  %77 = load i32, ptr %7, align 4
  %78 = zext i32 %77 to i64
  %79 = getelementptr inbounds [219 x %struct.OpcodeDecision], ptr @_ZL26x86DisassemblerMap4Opcodes, i64 0, i64 %78
  %80 = getelementptr inbounds nuw %struct.OpcodeDecision, ptr %79, i32 0, i32 0
  %81 = load i8, ptr %8, align 1
  %82 = zext i8 %81 to i64
  %83 = getelementptr inbounds [256 x %struct.ModRMDecision], ptr %80, i64 0, i64 %82
  store ptr %83, ptr %10, align 8
  br label %108

84:                                               ; preds = %4
  %85 = load i32, ptr %7, align 4
  %86 = zext i32 %85 to i64
  %87 = getelementptr inbounds [219 x %struct.OpcodeDecision], ptr @_ZL26x86DisassemblerMap5Opcodes, i64 0, i64 %86
  %88 = getelementptr inbounds nuw %struct.OpcodeDecision, ptr %87, i32 0, i32 0
  %89 = load i8, ptr %8, align 1
  %90 = zext i8 %89 to i64
  %91 = getelementptr inbounds [256 x %struct.ModRMDecision], ptr %88, i64 0, i64 %90
  store ptr %91, ptr %10, align 8
  br label %108

92:                                               ; preds = %4
  %93 = load i32, ptr %7, align 4
  %94 = zext i32 %93 to i64
  %95 = getelementptr inbounds [219 x %struct.OpcodeDecision], ptr @_ZL26x86DisassemblerMap6Opcodes, i64 0, i64 %94
  %96 = getelementptr inbounds nuw %struct.OpcodeDecision, ptr %95, i32 0, i32 0
  %97 = load i8, ptr %8, align 1
  %98 = zext i8 %97 to i64
  %99 = getelementptr inbounds [256 x %struct.ModRMDecision], ptr %96, i64 0, i64 %98
  store ptr %99, ptr %10, align 8
  br label %108

100:                                              ; preds = %4
  %101 = load i32, ptr %7, align 4
  %102 = zext i32 %101 to i64
  %103 = getelementptr inbounds [219 x %struct.OpcodeDecision], ptr @_ZL26x86DisassemblerMap7Opcodes, i64 0, i64 %102
  %104 = getelementptr inbounds nuw %struct.OpcodeDecision, ptr %103, i32 0, i32 0
  %105 = load i8, ptr %8, align 1
  %106 = zext i8 %105 to i64
  %107 = getelementptr inbounds [256 x %struct.ModRMDecision], ptr %104, i64 0, i64 %106
  store ptr %107, ptr %10, align 8
  br label %108

108:                                              ; preds = %100, %92, %84, %76, %68, %60, %52, %44, %36, %28, %20, %12, %4
  %109 = load ptr, ptr %10, align 8
  %110 = getelementptr inbounds nuw %struct.ModRMDecision, ptr %109, i32 0, i32 0
  %111 = load i8, ptr %110, align 4
  %112 = zext i8 %111 to i32
  switch i32 %112, label %113 [
    i32 0, label %114
    i32 1, label %121
    i32 3, label %142
    i32 2, label %173
    i32 4, label %203
  ]

113:                                              ; preds = %108
  unreachable

114:                                              ; preds = %108
  %115 = load ptr, ptr %10, align 8
  %116 = getelementptr inbounds nuw %struct.ModRMDecision, ptr %115, i32 0, i32 1
  %117 = load i32, ptr %116, align 4
  %118 = zext i32 %117 to i64
  %119 = getelementptr inbounds [29217 x i16], ptr @_ZL10modRMTable, i64 0, i64 %118
  %120 = load i16, ptr %119, align 2
  store i16 %120, ptr %5, align 2
  br label %213

121:                                              ; preds = %108
  %122 = load i8, ptr %9, align 1
  %123 = zext i8 %122 to i32
  %124 = ashr i32 %123, 6
  %125 = and i32 %124, 3
  %126 = icmp eq i32 %125, 3
  br i1 %126, label %127, label %135

127:                                              ; preds = %121
  %128 = load ptr, ptr %10, align 8
  %129 = getelementptr inbounds nuw %struct.ModRMDecision, ptr %128, i32 0, i32 1
  %130 = load i32, ptr %129, align 4
  %131 = add i32 %130, 1
  %132 = zext i32 %131 to i64
  %133 = getelementptr inbounds [29217 x i16], ptr @_ZL10modRMTable, i64 0, i64 %132
  %134 = load i16, ptr %133, align 2
  store i16 %134, ptr %5, align 2
  br label %213

135:                                              ; preds = %121
  %136 = load ptr, ptr %10, align 8
  %137 = getelementptr inbounds nuw %struct.ModRMDecision, ptr %136, i32 0, i32 1
  %138 = load i32, ptr %137, align 4
  %139 = zext i32 %138 to i64
  %140 = getelementptr inbounds [29217 x i16], ptr @_ZL10modRMTable, i64 0, i64 %139
  %141 = load i16, ptr %140, align 2
  store i16 %141, ptr %5, align 2
  br label %213

142:                                              ; preds = %108
  %143 = load i8, ptr %9, align 1
  %144 = zext i8 %143 to i32
  %145 = ashr i32 %144, 6
  %146 = and i32 %145, 3
  %147 = icmp eq i32 %146, 3
  br i1 %147, label %148, label %161

148:                                              ; preds = %142
  %149 = load ptr, ptr %10, align 8
  %150 = getelementptr inbounds nuw %struct.ModRMDecision, ptr %149, i32 0, i32 1
  %151 = load i32, ptr %150, align 4
  %152 = load i8, ptr %9, align 1
  %153 = zext i8 %152 to i32
  %154 = and i32 %153, 56
  %155 = ashr i32 %154, 3
  %156 = add i32 %151, %155
  %157 = add i32 %156, 8
  %158 = zext i32 %157 to i64
  %159 = getelementptr inbounds [29217 x i16], ptr @_ZL10modRMTable, i64 0, i64 %158
  %160 = load i16, ptr %159, align 2
  store i16 %160, ptr %5, align 2
  br label %213

161:                                              ; preds = %142
  %162 = load ptr, ptr %10, align 8
  %163 = getelementptr inbounds nuw %struct.ModRMDecision, ptr %162, i32 0, i32 1
  %164 = load i32, ptr %163, align 4
  %165 = load i8, ptr %9, align 1
  %166 = zext i8 %165 to i32
  %167 = and i32 %166, 56
  %168 = ashr i32 %167, 3
  %169 = add i32 %164, %168
  %170 = zext i32 %169 to i64
  %171 = getelementptr inbounds [29217 x i16], ptr @_ZL10modRMTable, i64 0, i64 %170
  %172 = load i16, ptr %171, align 2
  store i16 %172, ptr %5, align 2
  br label %213

173:                                              ; preds = %108
  %174 = load i8, ptr %9, align 1
  %175 = zext i8 %174 to i32
  %176 = ashr i32 %175, 6
  %177 = and i32 %176, 3
  %178 = icmp eq i32 %177, 3
  br i1 %178, label %179, label %191

179:                                              ; preds = %173
  %180 = load ptr, ptr %10, align 8
  %181 = getelementptr inbounds nuw %struct.ModRMDecision, ptr %180, i32 0, i32 1
  %182 = load i32, ptr %181, align 4
  %183 = load i8, ptr %9, align 1
  %184 = zext i8 %183 to i32
  %185 = and i32 %184, 63
  %186 = add i32 %182, %185
  %187 = add i32 %186, 8
  %188 = zext i32 %187 to i64
  %189 = getelementptr inbounds [29217 x i16], ptr @_ZL10modRMTable, i64 0, i64 %188
  %190 = load i16, ptr %189, align 2
  store i16 %190, ptr %5, align 2
  br label %213

191:                                              ; preds = %173
  %192 = load ptr, ptr %10, align 8
  %193 = getelementptr inbounds nuw %struct.ModRMDecision, ptr %192, i32 0, i32 1
  %194 = load i32, ptr %193, align 4
  %195 = load i8, ptr %9, align 1
  %196 = zext i8 %195 to i32
  %197 = and i32 %196, 56
  %198 = ashr i32 %197, 3
  %199 = add i32 %194, %198
  %200 = zext i32 %199 to i64
  %201 = getelementptr inbounds [29217 x i16], ptr @_ZL10modRMTable, i64 0, i64 %200
  %202 = load i16, ptr %201, align 2
  store i16 %202, ptr %5, align 2
  br label %213

203:                                              ; preds = %108
  %204 = load ptr, ptr %10, align 8
  %205 = getelementptr inbounds nuw %struct.ModRMDecision, ptr %204, i32 0, i32 1
  %206 = load i32, ptr %205, align 4
  %207 = load i8, ptr %9, align 1
  %208 = zext i8 %207 to i32
  %209 = add i32 %206, %208
  %210 = zext i32 %209 to i64
  %211 = getelementptr inbounds [29217 x i16], ptr @_ZL10modRMTable, i64 0, i64 %210
  %212 = load i16, ptr %211, align 2
  store i16 %212, ptr %5, align 2
  br label %213

213:                                              ; preds = %203, %191, %179, %161, %148, %135, %127, %114
  %214 = load i16, ptr %5, align 2
  ret i16 %214
}