; Function Attrs: mustprogress nofree norecurse nosync nounwind willreturn memory(read, inaccessiblemem: none) uwtable
define internal fastcc noundef zeroext i16 @_ZL6decodeN4llvm15X86Disassembler10OpcodeTypeENS0_18InstructionContextEhh(i32 noundef %0, i32 noundef range(i32 0, 256) %1, i8 noundef zeroext %2, i8 noundef zeroext %3) unnamed_addr #9 {
  switch i32 %0, label %65 [
    i32 0, label %5
    i32 1, label %10
    i32 2, label %15
    i32 3, label %20
    i32 4, label %25
    i32 5, label %30
    i32 6, label %35
    i32 7, label %40
    i32 8, label %45
    i32 9, label %50
    i32 10, label %55
    i32 11, label %60
  ]

5:                                                ; preds = %4
  %6 = zext nneg i32 %1 to i64
  %7 = getelementptr inbounds nuw [219 x %struct.OpcodeDecision], ptr @_ZL29x86DisassemblerOneByteOpcodes, i64 0, i64 %6
  %8 = zext i8 %2 to i64
  %9 = getelementptr inbounds nuw [256 x %struct.ModRMDecision], ptr %7, i64 0, i64 %8
  br label %65

10:                                               ; preds = %4
  %11 = zext nneg i32 %1 to i64
  %12 = getelementptr inbounds nuw [219 x %struct.OpcodeDecision], ptr @_ZL29x86DisassemblerTwoByteOpcodes, i64 0, i64 %11
  %13 = zext i8 %2 to i64
  %14 = getelementptr inbounds nuw [256 x %struct.ModRMDecision], ptr %12, i64 0, i64 %13
  br label %65

15:                                               ; preds = %4
  %16 = zext nneg i32 %1 to i64
  %17 = getelementptr inbounds nuw [219 x %struct.OpcodeDecision], ptr @_ZL33x86DisassemblerThreeByte38Opcodes, i64 0, i64 %16
  %18 = zext i8 %2 to i64
  %19 = getelementptr inbounds nuw [256 x %struct.ModRMDecision], ptr %17, i64 0, i64 %18
  br label %65

20:                                               ; preds = %4
  %21 = zext nneg i32 %1 to i64
  %22 = getelementptr inbounds nuw [219 x %struct.OpcodeDecision], ptr @_ZL33x86DisassemblerThreeByte3AOpcodes, i64 0, i64 %21
  %23 = zext i8 %2 to i64
  %24 = getelementptr inbounds nuw [256 x %struct.ModRMDecision], ptr %22, i64 0, i64 %23
  br label %65

25:                                               ; preds = %4
  %26 = zext nneg i32 %1 to i64
  %27 = getelementptr inbounds nuw [219 x %struct.OpcodeDecision], ptr @_ZL26x86DisassemblerXOP8Opcodes, i64 0, i64 %26
  %28 = zext i8 %2 to i64
  %29 = getelementptr inbounds nuw [256 x %struct.ModRMDecision], ptr %27, i64 0, i64 %28
  br label %65

30:                                               ; preds = %4
  %31 = zext nneg i32 %1 to i64
  %32 = getelementptr inbounds nuw [219 x %struct.OpcodeDecision], ptr @_ZL26x86DisassemblerXOP9Opcodes, i64 0, i64 %31
  %33 = zext i8 %2 to i64
  %34 = getelementptr inbounds nuw [256 x %struct.ModRMDecision], ptr %32, i64 0, i64 %33
  br label %65

35:                                               ; preds = %4
  %36 = zext nneg i32 %1 to i64
  %37 = getelementptr inbounds nuw [219 x %struct.OpcodeDecision], ptr @_ZL26x86DisassemblerXOPAOpcodes, i64 0, i64 %36
  %38 = zext i8 %2 to i64
  %39 = getelementptr inbounds nuw [256 x %struct.ModRMDecision], ptr %37, i64 0, i64 %38
  br label %65

40:                                               ; preds = %4
  %41 = zext nneg i32 %1 to i64
  %42 = getelementptr inbounds nuw [219 x %struct.OpcodeDecision], ptr @_ZL27x86Disassembler3DNowOpcodes, i64 0, i64 %41
  %43 = zext i8 %2 to i64
  %44 = getelementptr inbounds nuw [256 x %struct.ModRMDecision], ptr %42, i64 0, i64 %43
  br label %65

45:                                               ; preds = %4
  %46 = zext nneg i32 %1 to i64
  %47 = getelementptr inbounds nuw [219 x %struct.OpcodeDecision], ptr @_ZL26x86DisassemblerMap4Opcodes, i64 0, i64 %46
  %48 = zext i8 %2 to i64
  %49 = getelementptr inbounds nuw [256 x %struct.ModRMDecision], ptr %47, i64 0, i64 %48
  br label %65

50:                                               ; preds = %4
  %51 = zext nneg i32 %1 to i64
  %52 = getelementptr inbounds nuw [219 x %struct.OpcodeDecision], ptr @_ZL26x86DisassemblerMap5Opcodes, i64 0, i64 %51
  %53 = zext i8 %2 to i64
  %54 = getelementptr inbounds nuw [256 x %struct.ModRMDecision], ptr %52, i64 0, i64 %53
  br label %65

55:                                               ; preds = %4
  %56 = zext nneg i32 %1 to i64
  %57 = getelementptr inbounds nuw [219 x %struct.OpcodeDecision], ptr @_ZL26x86DisassemblerMap6Opcodes, i64 0, i64 %56
  %58 = zext i8 %2 to i64
  %59 = getelementptr inbounds nuw [256 x %struct.ModRMDecision], ptr %57, i64 0, i64 %58
  br label %65

60:                                               ; preds = %4
  %61 = zext nneg i32 %1 to i64
  %62 = getelementptr inbounds nuw [219 x %struct.OpcodeDecision], ptr @_ZL26x86DisassemblerMap7Opcodes, i64 0, i64 %61
  %63 = zext i8 %2 to i64
  %64 = getelementptr inbounds nuw [256 x %struct.ModRMDecision], ptr %62, i64 0, i64 %63
  br label %65

65:                                               ; preds = %60, %55, %50, %45, %40, %35, %30, %25, %20, %15, %10, %5, %4
  %.0 = phi ptr [ undef, %4 ], [ %64, %60 ], [ %59, %55 ], [ %54, %50 ], [ %49, %45 ], [ %44, %40 ], [ %39, %35 ], [ %34, %30 ], [ %29, %25 ], [ %24, %20 ], [ %19, %15 ], [ %14, %10 ], [ %9, %5 ]
  %66 = load i8, ptr %.0, align 4
  switch i8 %66, label %67 [
    i8 0, label %68
    i8 1, label %71
    i8 3, label %76
    i8 2, label %88
    i8 4, label %101
  ]

67:                                               ; preds = %65
  unreachable

68:                                               ; preds = %65
  %69 = getelementptr inbounds nuw i8, ptr %.0, i64 4
  %70 = load i32, ptr %69, align 4
  br label %106

71:                                               ; preds = %65
  %72 = icmp ugt i8 %3, -65
  %73 = getelementptr inbounds nuw i8, ptr %.0, i64 4
  %74 = load i32, ptr %73, align 4
  %75 = zext i1 %72 to i32
  %spec.select = add i32 %74, %75
  br label %106

76:                                               ; preds = %65
  %77 = zext i8 %3 to i32
  %.mask43 = and i32 %77, 192
  %78 = icmp eq i32 %.mask43, 192
  %79 = getelementptr inbounds nuw i8, ptr %.0, i64 4
  %80 = load i32, ptr %79, align 4
  %81 = lshr i32 %77, 3
  br i1 %78, label %82, label %85

82:                                               ; preds = %76
  %83 = and i32 %81, 15
  %84 = add i32 %83, %80
  br label %106

85:                                               ; preds = %76
  %86 = and i32 %81, 7
  %87 = add i32 %80, %86
  br label %106

88:                                               ; preds = %65
  %89 = zext i8 %3 to i32
  %.mask = and i32 %89, 192
  %90 = icmp eq i32 %.mask, 192
  %91 = getelementptr inbounds nuw i8, ptr %.0, i64 4
  %92 = load i32, ptr %91, align 4
  br i1 %90, label %93, label %97

93:                                               ; preds = %88
  %94 = and i32 %89, 63
  %95 = add nuw nsw i32 %94, 8
  %96 = add i32 %95, %92
  br label %106

97:                                               ; preds = %88
  %98 = lshr i32 %89, 3
  %99 = and i32 %98, 7
  %100 = add i32 %92, %99
  br label %106

101:                                              ; preds = %65
  %102 = getelementptr inbounds nuw i8, ptr %.0, i64 4
  %103 = load i32, ptr %102, align 4
  %104 = zext i8 %3 to i32
  %105 = add i32 %103, %104
  br label %106

106:                                              ; preds = %71, %101, %97, %93, %85, %82, %68
  %.sink45 = phi i32 [ %105, %101 ], [ %100, %97 ], [ %96, %93 ], [ %87, %85 ], [ %84, %82 ], [ %70, %68 ], [ %spec.select, %71 ]
  %107 = zext i32 %.sink45 to i64
  %108 = getelementptr inbounds nuw [29217 x i16], ptr @_ZL10modRMTable, i64 0, i64 %107
  %.042 = load i16, ptr %108, align 2
  ret i16 %.042
}